Certificate:
    Data:
        Version: 3 (0x2)
        Serial Number:
            3c:9c:17:41:d1:9f:3e:9f:41:da:0a:9a:a6:93:8f:13
        Signature Algorithm: sha256WithRSAEncryption
        Issuer: CN=Easy-RSA CA
        Validity
            Not Before: Feb 26 08:51:56 2020 GMT
            Not After : Feb 23 08:51:56 2030 GMT
        Subject: CN=client1
        Subject Public Key Info:
            Public Key Algorithm: rsaEncryption
                RSA Public-Key: (2048 bit)
                Modulus:
                    00:ac:8f:ce:f1:72:63:8f:5e:16:0f:bc:b0:c3:fa:
                    35:52:ea:9b:06:2c:61:85:2c:fe:10:b5:9c:e8:11:
                    6f:b2:cc:7d:28:86:76:e8:82:c5:c3:df:46:6f:49:
                    bd:0a:3f:98:1e:db:b9:c1:3c:ff:f2:4c:98:3c:32:
                    42:5a:70:d3:31:af:c0:fa:c1:b7:cd:22:15:d0:cc:
                    f8:fb:3d:32:7d:e9:72:ac:7d:2e:9e:f3:28:05:12:
                    ae:fd:e6:74:86:32:dd:8b:9a:5c:90:00:b8:48:02:
                    7e:30:9a:25:65:67:96:2a:b6:56:2d:ba:64:d1:ba:
                    eb:8d:45:02:87:29:66:3a:9e:27:80:ae:47:8b:93:
                    db:58:d1:b6:0a:c4:6c:3e:93:02:1d:78:04:80:a2:
                    df:02:82:1c:b8:1e:33:df:30:77:67:5e:8e:1a:dd:
                    47:70:bc:9a:56:02:c1:1f:2f:d3:05:aa:92:48:a1:
                    e7:62:43:ce:da:bc:03:85:df:ec:93:ff:81:bd:30:
                    95:3d:11:03:4e:38:86:cb:a1:b0:65:02:84:e4:75:
                    0d:12:e6:e6:eb:6c:7b:75:bd:c9:35:fe:45:3a:6d:
                    ea:f8:2c:78:37:e6:e1:b3:31:e9:c4:38:20:be:dd:
                    9d:7b:be:a9:62:dc:5c:b2:b2:b8:c3:ae:0a:5b:d2:
                    37:51
                Exponent: 65537 (0x10001)
        X509v3 extensions:
            X509v3 Basic Constraints: 
                CA:FALSE
            X509v3 Subject Key Identifier: 
                9E:75:4F:2B:90:7A:0D:E4:79:91:9F:70:78:93:34:00:D2:B5:08:74
            X509v3 Authority Key Identifier: 
                keyid:CB:97:3B:33:98:D0:F5:7A:EA:FA:36:71:87:13:3C:21:56:F0:4B:C3
                DirName:/CN=Easy-RSA CA
                serial:2C:0F:33:DF:89:1E:01:C2:3D:AD:04:F5:C3:B0:10:4F:09:D9:42:B6

            X509v3 Extended Key Usage: 
                TLS Web Client Authentication
            X509v3 Key Usage: 
                Digital Signature
    Signature Algorithm: sha256WithRSAEncryption
         78:f0:69:b4:ed:52:6d:03:b4:bc:5d:46:7e:1c:82:5a:36:95:
         45:36:f5:16:62:f9:ac:8c:aa:2f:1b:75:16:38:74:be:e0:b9:
         22:2a:5a:0a:e9:83:9a:8f:5f:c4:2e:8b:ab:d4:f3:8a:98:d5:
         27:20:55:b3:c2:b8:48:34:a1:69:e9:05:7b:5e:a9:cb:0b:96:
         c7:09:2e:6b:54:e8:f9:3c:3f:92:28:0a:90:94:91:12:83:1d:
         08:b5:bb:a8:e1:d7:1f:a6:c4:c9:32:8d:54:70:ff:bb:10:8a:
         95:96:89:c6:c6:46:2c:b8:64:71:c2:f0:76:29:fd:7b:fd:ef:
         eb:78:d7:83:73:6f:43:d5:0f:58:b6:f6:23:2e:d3:ea:06:50:
         e9:75:41:cf:1a:ff:57:ce:b0:4f:ca:9e:2f:bc:15:6b:cf:05:
         1c:b2:91:d9:f5:91:3f:12:80:b4:8a:46:49:3c:cf:27:d3:2d:
         4c:5e:fc:65:7c:60:0e:ff:41:65:11:e5:b5:19:d7:ea:9c:d5:
         6c:5f:62:91:5b:17:9a:e6:c0:10:44:09:3d:d7:3b:33:fa:d8:
         b9:2c:26:5e:32:84:13:ef:e8:e1:ba:86:d6:1a:fb:7a:1d:e4:
         b6:a7:80:c0:46:c6:12:a1:c5:c7:3a:29:cc:87:42:9e:17:36:
         1f:93:13:5e
-----BEGIN CERTIFICATE-----
MIIDVTCCAj2gAwIBAgIQPJwXQdGfPp9B2gqappOPEzANBgkqhkiG9w0BAQsFADAW
MRQwEgYDVQQDDAtFYXN5LVJTQSBDQTAeFw0yMDAyMjYwODUxNTZaFw0zMDAyMjMw
ODUxNTZaMBIxEDAOBgNVBAMMB2NsaWVudDEwggEiMA0GCSqGSIb3DQEBAQUAA4IB
DwAwggEKAoIBAQCsj87xcmOPXhYPvLDD+jVS6psGLGGFLP4QtZzoEW+yzH0ohnbo
gsXD30ZvSb0KP5ge27nBPP/yTJg8MkJacNMxr8D6wbfNIhXQzPj7PTJ96XKsfS6e
8ygFEq795nSGMt2LmlyQALhIAn4wmiVlZ5YqtlYtumTRuuuNRQKHKWY6nieArkeL
k9tY0bYKxGw+kwIdeASAot8Cghy4HjPfMHdnXo4a3UdwvJpWAsEfL9MFqpJIoedi
Q87avAOF3+yT/4G9MJU9EQNOOIbLobBlAoTkdQ0S5ubrbHt1vck1/kU6ber4LHg3
5uGzMenEOCC+3Z17vqli3FyysrjDrgpb0jdRAgMBAAGjgaIwgZ8wCQYDVR0TBAIw
ADAdBgNVHQ4EFgQUnnVPK5B6DeR5kZ9weJM0ANK1CHQwUQYDVR0jBEowSIAUy5c7
M5jQ9Xrq+jZxhxM8IVbwS8OhGqQYMBYxFDASBgNVBAMMC0Vhc3ktUlNBIENBghQs
DzPfiR4Bwj2tBPXDsBBPCdlCtjATBgNVHSUEDDAKBggrBgEFBQcDAjALBgNVHQ8E
BAMCB4AwDQYJKoZIhvcNAQELBQADggEBAHjwabTtUm0DtLxdRn4cglo2lUU29RZi
+ayMqi8bdRY4dL7guSIqWgrpg5qPX8Qui6vU84qY1ScgVbPCuEg0oWnpBXteqcsL
lscJLmtU6Pk8P5IoCpCUkRKDHQi1u6jh1x+mxMkyjVRw/7sQipWWicbGRiy4ZHHC
8HYp/Xv97+t414Nzb0PVD1i29iMu0+oGUOl1Qc8a/1fOsE/Kni+8FWvPBRyykdn1
kT8SgLSKRkk8zyfTLUxe/GV8YA7/QWUR5bUZ1+qc1WxfYpFbF5rmwBBECT3XOzP6
2LksJl4yhBPv6OG6htYa+3od5LangMBGxhKhxcc6KcyHQp4XNh+TE14=
-----END CERTIFICATE-----
